target datalayout = "e-m:e-p270:32:32-p271:32:32-p272:64:64-i64:64-i128:128-f80:128-n8:16:32:64-S128"
target triple = "x86_64-pc-linux-gnu"

%"class.std::initializer_list.319" = type { ptr, i64 }

; Function Attrs: mustprogress nounwind uwtable
define internal noundef i64 @"_ZNKSt16initializer_listIN4llvm3X863$_5EE4sizeEv"(ptr noundef nonnull align 8 dereferenceable(16) %0) #0 align 2 {
  %2 = alloca ptr, align 8
  store ptr %0, ptr %2, align 8
  %3 = load ptr, ptr %2, align 8
  %4 = getelementptr inbounds nuw %"class.std::initializer_list.319", ptr %3, i32 0, i32 1
  %5 = load i64, ptr %4, align 8
  ret i64 %5
}

; Function Attrs: mustprogress nounwind uwtable
define internal noundef ptr @"_ZNKSt16initializer_listIN4llvm3X863$_5EE3endEv"(ptr noundef nonnull align 8 dereferenceable(16) %0) #0 align 2 {
  %2 = alloca ptr, align 8
  store ptr %0, ptr %2, align 8
  %3 = load ptr, ptr %2, align 8
  %4 = call noundef ptr @"_ZNKSt16initializer_listIN4llvm3X863$_5EE5beginEv"(ptr noundef nonnull align 8 dereferenceable(16) %3) #4
  %5 = call noundef i64 @"_ZNKSt16initializer_listIN4llvm3X863$_5EE4sizeEv"(ptr noundef nonnull align 8 dereferenceable(16) %3) #4
  %6 = getelementptr inbounds i32, ptr %4, i64 %5
  ret ptr %6
}

; Function Attrs: mustprogress nounwind uwtable
define internal noundef ptr @"_ZNKSt16initializer_listIN4llvm3X863$_5EE5beginEv"(ptr noundef nonnull align 8 dereferenceable(16) %0) #0 align 2 {
  %2 = alloca ptr, align 8
  store ptr %0, ptr %2, align 8
  %3 = load ptr, ptr %2, align 8
  %4 = getelementptr inbounds nuw %"class.std::initializer_list.319", ptr %3, i32 0, i32 0
  %5 = load ptr, ptr %4, align 8
  ret ptr %5
}

; Function Attrs: mustprogress nounwind uwtable
define dso_local void @_ZNK4llvm15X86RegisterInfo25adjustStackMapLiveOutMaskEPj(ptr noundef nonnull align 8 dereferenceable(328) %0, ptr noundef %1) unnamed_addr #0 align 2 {
  %3 = alloca ptr, align 8
  %4 = alloca ptr, align 8
  %5 = alloca ptr, align 8
  %6 = alloca %"class.std::initializer_list.319", align 8
  %7 = alloca [4 x i32], align 4
  %8 = alloca ptr, align 8
  %9 = alloca ptr, align 8
  %10 = alloca i32, align 4
  store ptr %0, ptr %3, align 8
  store ptr %1, ptr %4, align 8
  store i32 28, ptr %7, align 4
  %11 = getelementptr inbounds i32, ptr %7, i64 1
  store i32 58, ptr %11, align 4
  %12 = getelementptr inbounds i32, ptr %7, i64 2
  store i32 29, ptr %12, align 4
  %13 = getelementptr inbounds i32, ptr %7, i64 3
  store i32 49, ptr %13, align 4
  %14 = getelementptr inbounds nuw %"class.std::initializer_list.319", ptr %6, i32 0, i32 0
  store ptr %7, ptr %14, align 8
  %15 = getelementptr inbounds nuw %"class.std::initializer_list.319", ptr %6, i32 0, i32 1
  store i64 4, ptr %15, align 8
  store ptr %6, ptr %5, align 8
  %16 = load ptr, ptr %5, align 8
  %17 = call noundef ptr @"_ZNKSt16initializer_listIN4llvm3X863$_5EE5beginEv"(ptr noundef nonnull align 8 dereferenceable(16) %16) #4
  store ptr %17, ptr %8, align 8
  %18 = load ptr, ptr %5, align 8
  %19 = call noundef ptr @"_ZNKSt16initializer_listIN4llvm3X863$_5EE3endEv"(ptr noundef nonnull align 8 dereferenceable(16) %18) #4
  store ptr %19, ptr %9, align 8
  br label %20

20:                                               ; preds = %38, %2
  %21 = load ptr, ptr %8, align 8
  %22 = load ptr, ptr %9, align 8
  %23 = icmp ne ptr %21, %22
  br i1 %23, label %24, label %41

24:                                               ; preds = %20
  %25 = load ptr, ptr %8, align 8
  %26 = load i32, ptr %25, align 4
  store i32 %26, ptr %10, align 4
  %27 = load i32, ptr %10, align 4
  %28 = srem i32 %27, 32
  %29 = shl i32 1, %28
  %30 = xor i32 %29, -1
  %31 = load ptr, ptr %4, align 8
  %32 = load i32, ptr %10, align 4
  %33 = sdiv i32 %32, 32
  %34 = sext i32 %33 to i64
  %35 = getelementptr inbounds i32, ptr %31, i64 %34
  %36 = load i32, ptr %35, align 4
  %37 = and i32 %36, %30
  store i32 %37, ptr %35, align 4
  br label %38

38:                                               ; preds = %24
  %39 = load ptr, ptr %8, align 8
  %40 = getelementptr inbounds i32, ptr %39, i32 1
  store ptr %40, ptr %8, align 8
  br label %20

41:                                               ; preds = %20
  ret void
}