; Function Attrs: mustprogress nofree norecurse nosync nounwind memory(argmem: readwrite) uwtable
define dso_local void @_ZNK4llvm15X86RegisterInfo25adjustStackMapLiveOutMaskEPj(ptr nonnull readnone align 8 captures(none) %0, ptr noundef captures(none) %1) unnamed_addr #8 align 2 {
  %3 = alloca [4 x i32], align 4
  store i32 28, ptr %3, align 4
  %4 = getelementptr inbounds nuw i8, ptr %3, i64 4
  store i32 58, ptr %4, align 4
  %5 = getelementptr inbounds nuw i8, ptr %3, i64 8
  store i32 29, ptr %5, align 4
  %6 = getelementptr inbounds nuw i8, ptr %3, i64 12
  store i32 49, ptr %6, align 4
  br label %7

7:                                                ; preds = %2, %7
  %.0.idx10 = phi i64 [ 0, %2 ], [ %.0.add, %7 ]
  %.0.ptr = getelementptr inbounds nuw i8, ptr %3, i64 %.0.idx10
  %8 = load i32, ptr %.0.ptr, align 4
  %9 = and i32 %8, 31
  %10 = shl nuw i32 1, %9
  %11 = xor i32 %10, -1
  %12 = sdiv i32 %8, 32
  %13 = sext i32 %12 to i64
  %14 = getelementptr inbounds i32, ptr %1, i64 %13
  %15 = load i32, ptr %14, align 4
  %16 = and i32 %15, %11
  store i32 %16, ptr %14, align 4
  %.0.add = add nuw nsw i64 %.0.idx10, 4
  %.not = icmp eq i64 %.0.add, 16
  br i1 %.not, label %17, label %7

17:                                               ; preds = %7
  ret void
}